; Function Attrs: mustprogress uwtable
define internal fastcc void @"_ZSt22__stable_sort_adaptiveIPmS0_lN9__gnu_cxx5__ops15_Iter_comp_iterIZN7xgboost6common16WeightedQuantileINS5_18IndexTransformIterIZZZNS4_3obj6detail18UpdateTreeLeafHostEPKNS4_7ContextERKSt6vectorIiSaIiEEiRKNS4_8MetaInfoEfRKNS4_16HostDeviceVectorIfEEfPNS4_7RegTreeEENK3$_1clEvENKUlmE_clEmEUlmE_EENS7_IZZZNS9_18UpdateTreeLeafHostESC_SH_iSK_fSO_fSQ_ENKSR_clEvENKSS_clEmEUlmE0_EEfEET1_SC_dT_SY_T0_EUlmmE_EEEvSY_SY_SZ_SX_T2_"(ptr noundef %0, ptr noundef %1, ptr noundef %2, i64 noundef %3, ptr %4) unnamed_addr #3 {
  %6 = ptrtoint ptr %1 to i64
  %7 = ptrtoint ptr %0 to i64
  %8 = sub i64 %6, %7
  %9 = ashr exact i64 %8, 3
  %10 = add nsw i64 %9, 1
  %11 = sdiv i64 %10, 2
  %12 = getelementptr inbounds i64, ptr %0, i64 %11
  %13 = icmp sgt i64 %11, %3
  br i1 %13, label %14, label %15

14:                                               ; preds = %5
  tail call fastcc void @"_ZSt22__stable_sort_adaptiveIPmS0_lN9__gnu_cxx5__ops15_Iter_comp_iterIZN7xgboost6common16WeightedQuantileINS5_18IndexTransformIterIZZZNS4_3obj6detail18UpdateTreeLeafHostEPKNS4_7ContextERKSt6vectorIiSaIiEEiRKNS4_8MetaInfoEfRKNS4_16HostDeviceVectorIfEEfPNS4_7RegTreeEENK3$_1clEvENKUlmE_clEmEUlmE_EENS7_IZZZNS9_18UpdateTreeLeafHostESC_SH_iSK_fSO_fSQ_ENKSR_clEvENKSS_clEmEUlmE0_EEfEET1_SC_dT_SY_T0_EUlmmE_EEEvSY_SY_SZ_SX_T2_"(ptr noundef %0, ptr noundef %12, ptr noundef %2, i64 noundef %3, ptr %4)
  tail call fastcc void @"_ZSt22__stable_sort_adaptiveIPmS0_lN9__gnu_cxx5__ops15_Iter_comp_iterIZN7xgboost6common16WeightedQuantileINS5_18IndexTransformIterIZZZNS4_3obj6detail18UpdateTreeLeafHostEPKNS4_7ContextERKSt6vectorIiSaIiEEiRKNS4_8MetaInfoEfRKNS4_16HostDeviceVectorIfEEfPNS4_7RegTreeEENK3$_1clEvENKUlmE_clEmEUlmE_EENS7_IZZZNS9_18UpdateTreeLeafHostESC_SH_iSK_fSO_fSQ_ENKSR_clEvENKSS_clEmEUlmE0_EEfEET1_SC_dT_SY_T0_EUlmmE_EEEvSY_SY_SZ_SX_T2_"(ptr noundef %12, ptr noundef %1, ptr noundef %2, i64 noundef %3, ptr %4)
  br label %16

15:                                               ; preds = %5
  tail call fastcc void @"_ZSt24__merge_sort_with_bufferIPmS0_N9__gnu_cxx5__ops15_Iter_comp_iterIZN7xgboost6common16WeightedQuantileINS5_18IndexTransformIterIZZZNS4_3obj6detail18UpdateTreeLeafHostEPKNS4_7ContextERKSt6vectorIiSaIiEEiRKNS4_8MetaInfoEfRKNS4_16HostDeviceVectorIfEEfPNS4_7RegTreeEENK3$_1clEvENKUlmE_clEmEUlmE_EENS7_IZZZNS9_18UpdateTreeLeafHostESC_SH_iSK_fSO_fSQ_ENKSR_clEvENKSS_clEmEUlmE0_EEfEET1_SC_dT_SY_T0_EUlmmE_EEEvSY_SY_SZ_SX_"(ptr noundef %0, ptr noundef %12, ptr noundef %2, ptr %4)
  tail call fastcc void @"_ZSt24__merge_sort_with_bufferIPmS0_N9__gnu_cxx5__ops15_Iter_comp_iterIZN7xgboost6common16WeightedQuantileINS5_18IndexTransformIterIZZZNS4_3obj6detail18UpdateTreeLeafHostEPKNS4_7ContextERKSt6vectorIiSaIiEEiRKNS4_8MetaInfoEfRKNS4_16HostDeviceVectorIfEEfPNS4_7RegTreeEENK3$_1clEvENKUlmE_clEmEUlmE_EENS7_IZZZNS9_18UpdateTreeLeafHostESC_SH_iSK_fSO_fSQ_ENKSR_clEvENKSS_clEmEUlmE0_EEfEET1_SC_dT_SY_T0_EUlmmE_EEEvSY_SY_SZ_SX_"(ptr noundef %12, ptr noundef %1, ptr noundef %2, ptr %4)
  br label %16

16:                                               ; preds = %15, %14
  %17 = ptrtoint ptr %12 to i64
  %18 = sub i64 %6, %17
  %19 = ashr exact i64 %18, 3
  %20 = ptrtoint ptr %4 to i64
  tail call fastcc void @"_ZSt16__merge_adaptiveIPmlS0_N9__gnu_cxx5__ops15_Iter_comp_iterIZN7xgboost6common16WeightedQuantileINS5_18IndexTransformIterIZZZNS4_3obj6detail18UpdateTreeLeafHostEPKNS4_7ContextERKSt6vectorIiSaIiEEiRKNS4_8MetaInfoEfRKNS4_16HostDeviceVectorIfEEfPNS4_7RegTreeEENK3$_1clEvENKUlmE_clEmEUlmE_EENS7_IZZZNS9_18UpdateTreeLeafHostESC_SH_iSK_fSO_fSQ_ENKSR_clEvENKSS_clEmEUlmE0_EEfEET1_SC_dT_SY_T0_EUlmmE_EEEvSY_SY_SY_SZ_SZ_SX_SZ_T2_"(ptr noundef %0, ptr noundef %12, ptr noundef %1, i64 noundef %11, i64 noundef %19, ptr noundef %2, i64 noundef %3, i64 %20)
  ret void
}